target datalayout = "e-m:e-p270:32:32-p271:32:32-p272:64:64-i64:64-i128:128-f80:128-n8:16:32:64-S128"
target triple = "x86_64-pc-linux-gnu"

%"class.std::__cxx11::basic_string" = type { %"struct.std::__cxx11::basic_string<char>::_Alloc_hider", i64, %union.anon }
%"struct.std::__cxx11::basic_string<char>::_Alloc_hider" = type { ptr }
%union.anon = type { i64, [8 x i8] }
%"class.cmProcessTools::LineParser" = type <{ %"class.cmProcessTools::OutputParser", ptr, ptr, %"class.std::__cxx11::basic_string", i8, i8, i8, [5 x i8] }>
%"class.cmProcessTools::OutputParser" = type { ptr }

@_ZTVN14cmProcessTools12OutputParserE = linkonce_odr dso_local unnamed_addr constant { [5 x ptr] } { [5 x ptr] [ptr null, ptr @_ZTIN14cmProcessTools12OutputParserE, ptr @_ZN14cmProcessTools12OutputParserD2Ev, ptr @_ZN14cmProcessTools12OutputParserD0Ev, ptr @__cxa_pure_virtual] }, comdat, align 8

; Function Attrs: mustprogress nounwind uwtable
define linkonce_odr dso_local void @_ZN14cmProcessTools12OutputParserC2Ev(ptr noundef nonnull align 8 dereferenceable(8) %0) unnamed_addr #3 comdat align 2 {
  %2 = alloca ptr, align 8
  store ptr %0, ptr %2, align 8
  %3 = load ptr, ptr %2, align 8
  store ptr getelementptr inbounds ({ [5 x ptr] }, ptr @_ZTVN14cmProcessTools12OutputParserE, i32 0, i32 0, i32 2), ptr %3, align 8
  ret void
}

; Function Attrs: mustprogress nounwind uwtable
define dso_local void @_ZN14cmProcessTools10LineParserC2Ecb(ptr noundef nonnull align 8 dereferenceable(59) %0, i8 noundef signext %1, i1 noundef zeroext %2) unnamed_addr #3 align 2 {
  %4 = alloca ptr, align 8
  %5 = alloca i8, align 1
  %6 = alloca i8, align 1
  store ptr %0, ptr %4, align 8
  store i8 %1, ptr %5, align 1
  %7 = zext i1 %2 to i8
  store i8 %7, ptr %6, align 1
  %8 = load ptr, ptr %4, align 8
  call void @_ZN14cmProcessTools12OutputParserC2Ev(ptr noundef nonnull align 8 dereferenceable(8) %8) #11
  store ptr getelementptr inbounds ({ [6 x ptr] }, ptr @_ZTVN14cmProcessTools10LineParserE, i32 0, i32 0, i32 2), ptr %8, align 8
  %9 = getelementptr inbounds %"class.cmProcessTools::LineParser", ptr %8, i32 0, i32 1
  store ptr null, ptr %9, align 8
  %10 = getelementptr inbounds %"class.cmProcessTools::LineParser", ptr %8, i32 0, i32 2
  store ptr null, ptr %10, align 8
  %11 = getelementptr inbounds %"class.cmProcessTools::LineParser", ptr %8, i32 0, i32 3
  call void @_ZNSt7__cxx1112basic_stringIcSt11char_traitsIcESaIcEEC1Ev(ptr noundef nonnull align 8 dereferenceable(32) %11) #11
  %12 = getelementptr inbounds %"class.cmProcessTools::LineParser", ptr %8, i32 0, i32 4
  %13 = load i8, ptr %5, align 1
  store i8 %13, ptr %12, align 8
  %14 = getelementptr inbounds %"class.cmProcessTools::LineParser", ptr %8, i32 0, i32 5
  store i8 0, ptr %14, align 1
  %15 = getelementptr inbounds %"class.cmProcessTools::LineParser", ptr %8, i32 0, i32 6
  %16 = load i8, ptr %6, align 1
  %17 = trunc i8 %16 to i1
  %18 = zext i1 %17 to i8
  store i8 %18, ptr %15, align 2
  ret void
}