; Function Attrs: mustprogress nounwind uwtable
define dso_local void @_ZN14cmProcessTools10LineParserC2Ecb(ptr noundef nonnull align 8 dereferenceable(59) %0, i8 noundef signext %1, i1 noundef zeroext %2) unnamed_addr #3 align 2 {
  %4 = zext i1 %2 to i8
  store ptr getelementptr inbounds ({ [6 x ptr] }, ptr @_ZTVN14cmProcessTools10LineParserE, i64 0, i32 0, i64 2), ptr %0, align 8
  %5 = getelementptr inbounds i8, ptr %0, i64 8
  %6 = getelementptr inbounds i8, ptr %0, i64 24
  tail call void @llvm.memset.p0.i64(ptr noundef nonnull align 8 dereferenceable(16) %5, i8 0, i64 16, i1 false)
  tail call void @_ZNSt7__cxx1112basic_stringIcSt11char_traitsIcESaIcEEC1Ev(ptr noundef nonnull align 8 dereferenceable(32) %6) #18
  %7 = getelementptr inbounds i8, ptr %0, i64 56
  store i8 %1, ptr %7, align 8
  %8 = getelementptr inbounds i8, ptr %0, i64 57
  store i8 0, ptr %8, align 1
  %9 = getelementptr inbounds i8, ptr %0, i64 58
  store i8 %4, ptr %9, align 2
  ret void
}